target datalayout = "e-m:e-p270:32:32-p271:32:32-p272:64:64-i64:64-i128:128-f80:128-n8:16:32:64-S128"
target triple = "x86_64-pc-linux-gnu"

%struct.cliCommandArg = type { ptr, i32, ptr, ptr, i32, i32, ptr, ptr, i32, i32, i32, i32 }

@.str.157 = private unnamed_addr constant [5 x i8] c"%lld\00", align 1
@.str.158 = private unnamed_addr constant [4 x i8] c"%lf\00", align 1

; Function Attrs: nounwind uwtable
define internal i32 @matchNoTokenArg(ptr noundef %0, i32 noundef %1, ptr noundef %2) #0 {
  %4 = alloca ptr, align 8
  %5 = alloca i32, align 4
  %6 = alloca ptr, align 8
  %7 = alloca i32, align 4
  %8 = alloca i64, align 8
  %9 = alloca double, align 8
  store ptr %0, ptr %4, align 8, !tbaa !42
  store i32 %1, ptr %5, align 4, !tbaa !10
  store ptr %2, ptr %6, align 8, !tbaa !43
  call void @llvm.lifetime.start.p0(i64 4, ptr %7) #15
  %10 = load ptr, ptr %6, align 8, !tbaa !43
  %11 = getelementptr inbounds nuw %struct.cliCommandArg, ptr %10, i32 0, i32 1
  %12 = load i32, ptr %11, align 8, !tbaa !380
  switch i32 %12, label %139 [
    i32 8, label %13
    i32 7, label %53
    i32 1, label %99
    i32 5, label %99
    i32 2, label %119
  ]

13:                                               ; preds = %3
  %14 = load ptr, ptr %4, align 8, !tbaa !42
  %15 = load i32, ptr %5, align 4, !tbaa !10
  %16 = load ptr, ptr %6, align 8, !tbaa !43
  %17 = getelementptr inbounds nuw %struct.cliCommandArg, ptr %16, i32 0, i32 6
  %18 = load ptr, ptr %17, align 8, !tbaa !381
  %19 = load ptr, ptr %6, align 8, !tbaa !43
  %20 = getelementptr inbounds nuw %struct.cliCommandArg, ptr %19, i32 0, i32 5
  %21 = load i32, ptr %20, align 4, !tbaa !382
  %22 = call i32 @matchArgs(ptr noundef %14, i32 noundef %15, ptr noundef %18, i32 noundef %21)
  %23 = load ptr, ptr %6, align 8, !tbaa !43
  %24 = getelementptr inbounds nuw %struct.cliCommandArg, ptr %23, i32 0, i32 8
  %25 = load i32, ptr %24, align 8, !tbaa !386
  %26 = add nsw i32 %25, %22
  store i32 %26, ptr %24, align 8, !tbaa !386
  %27 = load ptr, ptr %6, align 8, !tbaa !43
  %28 = getelementptr inbounds nuw %struct.cliCommandArg, ptr %27, i32 0, i32 11
  store i32 1, ptr %28, align 4, !tbaa !389
  store i32 0, ptr %7, align 4, !tbaa !10
  br label %29

29:                                               ; preds = %49, %13
  %30 = load i32, ptr %7, align 4, !tbaa !10
  %31 = load ptr, ptr %6, align 8, !tbaa !43
  %32 = getelementptr inbounds nuw %struct.cliCommandArg, ptr %31, i32 0, i32 5
  %33 = load i32, ptr %32, align 4, !tbaa !382
  %34 = icmp slt i32 %30, %33
  br i1 %34, label %35, label %52

35:                                               ; preds = %29
  %36 = load ptr, ptr %6, align 8, !tbaa !43
  %37 = getelementptr inbounds nuw %struct.cliCommandArg, ptr %36, i32 0, i32 6
  %38 = load ptr, ptr %37, align 8, !tbaa !381
  %39 = load i32, ptr %7, align 4, !tbaa !10
  %40 = sext i32 %39 to i64
  %41 = getelementptr inbounds %struct.cliCommandArg, ptr %38, i64 %40
  %42 = getelementptr inbounds nuw %struct.cliCommandArg, ptr %41, i32 0, i32 11
  %43 = load i32, ptr %42, align 4, !tbaa !389
  %44 = icmp eq i32 %43, 0
  br i1 %44, label %45, label %48

45:                                               ; preds = %35
  %46 = load ptr, ptr %6, align 8, !tbaa !43
  %47 = getelementptr inbounds nuw %struct.cliCommandArg, ptr %46, i32 0, i32 11
  store i32 0, ptr %47, align 4, !tbaa !389
  br label %48

48:                                               ; preds = %45, %35
  br label %49

49:                                               ; preds = %48
  %50 = load i32, ptr %7, align 4, !tbaa !10
  %51 = add nsw i32 %50, 1
  store i32 %51, ptr %7, align 4, !tbaa !10
  br label %29, !llvm.loop !399

52:                                               ; preds = %29
  br label %148

53:                                               ; preds = %3
  store i32 0, ptr %7, align 4, !tbaa !10
  br label %54

54:                                               ; preds = %95, %53
  %55 = load i32, ptr %7, align 4, !tbaa !10
  %56 = load ptr, ptr %6, align 8, !tbaa !43
  %57 = getelementptr inbounds nuw %struct.cliCommandArg, ptr %56, i32 0, i32 5
  %58 = load i32, ptr %57, align 4, !tbaa !382
  %59 = icmp slt i32 %55, %58
  br i1 %59, label %60, label %98

60:                                               ; preds = %54
  %61 = load ptr, ptr %4, align 8, !tbaa !42
  %62 = load i32, ptr %5, align 4, !tbaa !10
  %63 = load ptr, ptr %6, align 8, !tbaa !43
  %64 = getelementptr inbounds nuw %struct.cliCommandArg, ptr %63, i32 0, i32 6
  %65 = load ptr, ptr %64, align 8, !tbaa !381
  %66 = load i32, ptr %7, align 4, !tbaa !10
  %67 = sext i32 %66 to i64
  %68 = getelementptr inbounds %struct.cliCommandArg, ptr %65, i64 %67
  %69 = call i32 @matchArg(ptr noundef %61, i32 noundef %62, ptr noundef %68)
  %70 = icmp ne i32 %69, 0
  br i1 %70, label %71, label %94

71:                                               ; preds = %60
  %72 = load ptr, ptr %6, align 8, !tbaa !43
  %73 = getelementptr inbounds nuw %struct.cliCommandArg, ptr %72, i32 0, i32 6
  %74 = load ptr, ptr %73, align 8, !tbaa !381
  %75 = load i32, ptr %7, align 4, !tbaa !10
  %76 = sext i32 %75 to i64
  %77 = getelementptr inbounds %struct.cliCommandArg, ptr %74, i64 %76
  %78 = getelementptr inbounds nuw %struct.cliCommandArg, ptr %77, i32 0, i32 8
  %79 = load i32, ptr %78, align 8, !tbaa !386
  %80 = load ptr, ptr %6, align 8, !tbaa !43
  %81 = getelementptr inbounds nuw %struct.cliCommandArg, ptr %80, i32 0, i32 8
  %82 = load i32, ptr %81, align 8, !tbaa !386
  %83 = add nsw i32 %82, %79
  store i32 %83, ptr %81, align 8, !tbaa !386
  %84 = load ptr, ptr %6, align 8, !tbaa !43
  %85 = getelementptr inbounds nuw %struct.cliCommandArg, ptr %84, i32 0, i32 6
  %86 = load ptr, ptr %85, align 8, !tbaa !381
  %87 = load i32, ptr %7, align 4, !tbaa !10
  %88 = sext i32 %87 to i64
  %89 = getelementptr inbounds %struct.cliCommandArg, ptr %86, i64 %88
  %90 = getelementptr inbounds nuw %struct.cliCommandArg, ptr %89, i32 0, i32 11
  %91 = load i32, ptr %90, align 4, !tbaa !389
  %92 = load ptr, ptr %6, align 8, !tbaa !43
  %93 = getelementptr inbounds nuw %struct.cliCommandArg, ptr %92, i32 0, i32 11
  store i32 %91, ptr %93, align 4, !tbaa !389
  br label %98

94:                                               ; preds = %60
  br label %95

95:                                               ; preds = %94
  %96 = load i32, ptr %7, align 4, !tbaa !10
  %97 = add nsw i32 %96, 1
  store i32 %97, ptr %7, align 4, !tbaa !10
  br label %54, !llvm.loop !400

98:                                               ; preds = %71, %54
  br label %148

99:                                               ; preds = %3, %3
  call void @llvm.lifetime.start.p0(i64 8, ptr %8) #15
  %100 = load ptr, ptr %4, align 8, !tbaa !42
  %101 = load ptr, ptr %100, align 8, !tbaa !5
  %102 = call i32 (ptr, ptr, ...) @__isoc99_sscanf(ptr noundef %101, ptr noundef @.str.157, ptr noundef %8) #15
  %103 = icmp eq i32 %102, 1
  br i1 %103, label %104, label %113

104:                                              ; preds = %99
  %105 = load ptr, ptr %6, align 8, !tbaa !43
  %106 = getelementptr inbounds nuw %struct.cliCommandArg, ptr %105, i32 0, i32 8
  %107 = load i32, ptr %106, align 8, !tbaa !386
  %108 = add nsw i32 %107, 1
  store i32 %108, ptr %106, align 8, !tbaa !386
  %109 = load ptr, ptr %6, align 8, !tbaa !43
  %110 = getelementptr inbounds nuw %struct.cliCommandArg, ptr %109, i32 0, i32 10
  store i32 1, ptr %110, align 8, !tbaa !388
  %111 = load ptr, ptr %6, align 8, !tbaa !43
  %112 = getelementptr inbounds nuw %struct.cliCommandArg, ptr %111, i32 0, i32 11
  store i32 1, ptr %112, align 4, !tbaa !389
  br label %118

113:                                              ; preds = %99
  %114 = load ptr, ptr %6, align 8, !tbaa !43
  %115 = getelementptr inbounds nuw %struct.cliCommandArg, ptr %114, i32 0, i32 8
  store i32 0, ptr %115, align 8, !tbaa !386
  %116 = load ptr, ptr %6, align 8, !tbaa !43
  %117 = getelementptr inbounds nuw %struct.cliCommandArg, ptr %116, i32 0, i32 10
  store i32 0, ptr %117, align 8, !tbaa !388
  br label %118

118:                                              ; preds = %113, %104
  call void @llvm.lifetime.end.p0(i64 8, ptr %8) #15
  br label %148

119:                                              ; preds = %3
  call void @llvm.lifetime.start.p0(i64 8, ptr %9) #15
  %120 = load ptr, ptr %4, align 8, !tbaa !42
  %121 = load ptr, ptr %120, align 8, !tbaa !5
  %122 = call i32 (ptr, ptr, ...) @__isoc99_sscanf(ptr noundef %121, ptr noundef @.str.158, ptr noundef %9) #15
  %123 = icmp eq i32 %122, 1
  br i1 %123, label %124, label %133

124:                                              ; preds = %119
  %125 = load ptr, ptr %6, align 8, !tbaa !43
  %126 = getelementptr inbounds nuw %struct.cliCommandArg, ptr %125, i32 0, i32 8
  %127 = load i32, ptr %126, align 8, !tbaa !386
  %128 = add nsw i32 %127, 1
  store i32 %128, ptr %126, align 8, !tbaa !386
  %129 = load ptr, ptr %6, align 8, !tbaa !43
  %130 = getelementptr inbounds nuw %struct.cliCommandArg, ptr %129, i32 0, i32 10
  store i32 1, ptr %130, align 8, !tbaa !388
  %131 = load ptr, ptr %6, align 8, !tbaa !43
  %132 = getelementptr inbounds nuw %struct.cliCommandArg, ptr %131, i32 0, i32 11
  store i32 1, ptr %132, align 4, !tbaa !389
  br label %138

133:                                              ; preds = %119
  %134 = load ptr, ptr %6, align 8, !tbaa !43
  %135 = getelementptr inbounds nuw %struct.cliCommandArg, ptr %134, i32 0, i32 8
  store i32 0, ptr %135, align 8, !tbaa !386
  %136 = load ptr, ptr %6, align 8, !tbaa !43
  %137 = getelementptr inbounds nuw %struct.cliCommandArg, ptr %136, i32 0, i32 10
  store i32 0, ptr %137, align 8, !tbaa !388
  br label %138

138:                                              ; preds = %133, %124
  call void @llvm.lifetime.end.p0(i64 8, ptr %9) #15
  br label %148

139:                                              ; preds = %3
  %140 = load ptr, ptr %6, align 8, !tbaa !43
  %141 = getelementptr inbounds nuw %struct.cliCommandArg, ptr %140, i32 0, i32 8
  %142 = load i32, ptr %141, align 8, !tbaa !386
  %143 = add nsw i32 %142, 1
  store i32 %143, ptr %141, align 8, !tbaa !386
  %144 = load ptr, ptr %6, align 8, !tbaa !43
  %145 = getelementptr inbounds nuw %struct.cliCommandArg, ptr %144, i32 0, i32 10
  store i32 1, ptr %145, align 8, !tbaa !388
  %146 = load ptr, ptr %6, align 8, !tbaa !43
  %147 = getelementptr inbounds nuw %struct.cliCommandArg, ptr %146, i32 0, i32 11
  store i32 1, ptr %147, align 4, !tbaa !389
  br label %148

148:                                              ; preds = %139, %138, %118, %98, %52
  %149 = load ptr, ptr %6, align 8, !tbaa !43
  %150 = getelementptr inbounds nuw %struct.cliCommandArg, ptr %149, i32 0, i32 8
  %151 = load i32, ptr %150, align 8, !tbaa !386
  call void @llvm.lifetime.end.p0(i64 4, ptr %7) #15
  ret i32 %151
}