; Function Attrs: nofree nounwind uwtable
define internal fastcc i32 @matchNoTokenArg(ptr noundef nonnull readonly captures(none) %0, i32 noundef %1, ptr noundef captures(none) %2) unnamed_addr #14 {
  %4 = alloca i64, align 8
  %5 = alloca double, align 8
  %6 = getelementptr inbounds nuw i8, ptr %2, i64 8
  %7 = load i32, ptr %6, align 8, !tbaa !376
  switch i32 %7, label %73 [
    i32 8, label %12
    i32 7, label %.preheader
    i32 1, label %49
    i32 5, label %49
    i32 2, label %61
  ]

.preheader:                                       ; preds = %3
  %8 = getelementptr inbounds nuw i8, ptr %2, i64 36
  %9 = load i32, ptr %8, align 4, !tbaa !378
  %10 = icmp sgt i32 %9, 0
  br i1 %10, label %.lr.ph, label %.loopexit

.lr.ph:                                           ; preds = %.preheader
  %11 = getelementptr inbounds nuw i8, ptr %2, i64 40
  br label %35

12:                                               ; preds = %3
  %13 = getelementptr inbounds nuw i8, ptr %2, i64 40
  %14 = load ptr, ptr %13, align 8, !tbaa !377
  %15 = getelementptr inbounds nuw i8, ptr %2, i64 36
  %16 = load i32, ptr %15, align 4, !tbaa !378
  %17 = tail call fastcc i32 @matchArgs(ptr noundef %0, i32 noundef %1, ptr noundef %14, i32 noundef %16)
  %18 = getelementptr inbounds nuw i8, ptr %2, i64 56
  %19 = load i32, ptr %18, align 8, !tbaa !385
  %20 = add nsw i32 %19, %17
  store i32 %20, ptr %18, align 8, !tbaa !385
  %21 = getelementptr inbounds nuw i8, ptr %2, i64 68
  store i32 1, ptr %21, align 4, !tbaa !387
  %22 = load i32, ptr %15, align 4, !tbaa !378
  %23 = icmp sgt i32 %22, 0
  br i1 %23, label %.lr.ph45, label %.loopexit

.lr.ph45:                                         ; preds = %12
  %24 = load ptr, ptr %13, align 8, !tbaa !377
  %wide.trip.count = zext nneg i32 %22 to i64
  br label %25

25:                                               ; preds = %.lr.ph45, %30
  %indvars.iv49 = phi i64 [ 0, %.lr.ph45 ], [ %indvars.iv.next50, %30 ]
  %26 = getelementptr inbounds nuw %struct.cliCommandArg, ptr %24, i64 %indvars.iv49, i32 11
  %27 = load i32, ptr %26, align 4, !tbaa !387
  %28 = icmp eq i32 %27, 0
  br i1 %28, label %29, label %30

29:                                               ; preds = %25
  store i32 0, ptr %21, align 4, !tbaa !387
  br label %30

30:                                               ; preds = %25, %29
  %indvars.iv.next50 = add nuw nsw i64 %indvars.iv49, 1
  %exitcond.not = icmp eq i64 %indvars.iv.next50, %wide.trip.count
  br i1 %exitcond.not, label %.loopexit, label %25, !llvm.loop !394

31:                                               ; preds = %35
  %indvars.iv.next = add nuw nsw i64 %indvars.iv, 1
  %32 = load i32, ptr %8, align 4, !tbaa !378
  %33 = sext i32 %32 to i64
  %34 = icmp slt i64 %indvars.iv.next, %33
  br i1 %34, label %35, label %.loopexit, !llvm.loop !395

35:                                               ; preds = %.lr.ph, %31
  %indvars.iv = phi i64 [ 0, %.lr.ph ], [ %indvars.iv.next, %31 ]
  %36 = load ptr, ptr %11, align 8, !tbaa !377
  %37 = getelementptr inbounds nuw %struct.cliCommandArg, ptr %36, i64 %indvars.iv
  %38 = tail call fastcc i32 @matchArg(ptr noundef %0, i32 noundef %1, ptr noundef %37)
  %.not = icmp eq i32 %38, 0
  br i1 %.not, label %31, label %39

39:                                               ; preds = %35
  %40 = load ptr, ptr %11, align 8, !tbaa !377
  %41 = getelementptr inbounds nuw %struct.cliCommandArg, ptr %40, i64 %indvars.iv, i32 8
  %42 = load i32, ptr %41, align 8, !tbaa !385
  %43 = getelementptr inbounds nuw i8, ptr %2, i64 56
  %44 = load i32, ptr %43, align 8, !tbaa !385
  %45 = add nsw i32 %44, %42
  store i32 %45, ptr %43, align 8, !tbaa !385
  %46 = getelementptr inbounds nuw %struct.cliCommandArg, ptr %40, i64 %indvars.iv, i32 11
  %47 = load i32, ptr %46, align 4, !tbaa !387
  %48 = getelementptr inbounds nuw i8, ptr %2, i64 68
  store i32 %47, ptr %48, align 4, !tbaa !387
  br label %.loopexit

49:                                               ; preds = %3, %3
  call void @llvm.lifetime.start.p0(i64 8, ptr nonnull %4) #33
  %50 = load ptr, ptr %0, align 8, !tbaa !24
  %51 = call i32 (ptr, ptr, ...) @__isoc99_sscanf(ptr noundef %50, ptr noundef nonnull @.str.157, ptr noundef nonnull %4) #33
  %52 = icmp eq i32 %51, 1
  %53 = getelementptr inbounds nuw i8, ptr %2, i64 56
  br i1 %52, label %54, label %58

54:                                               ; preds = %49
  %55 = load i32, ptr %53, align 8, !tbaa !385
  %56 = add nsw i32 %55, 1
  store i32 %56, ptr %53, align 8, !tbaa !385
  %57 = getelementptr inbounds nuw i8, ptr %2, i64 68
  store i32 1, ptr %57, align 4, !tbaa !387
  br label %59

58:                                               ; preds = %49
  store i32 0, ptr %53, align 8, !tbaa !385
  br label %59

59:                                               ; preds = %58, %54
  %.sink = phi i32 [ 1, %54 ], [ 0, %58 ]
  %60 = getelementptr inbounds nuw i8, ptr %2, i64 64
  store i32 %.sink, ptr %60, align 8, !tbaa !396
  call void @llvm.lifetime.end.p0(i64 8, ptr nonnull %4) #33
  br label %.loopexit

61:                                               ; preds = %3
  call void @llvm.lifetime.start.p0(i64 8, ptr nonnull %5) #33
  %62 = load ptr, ptr %0, align 8, !tbaa !24
  %63 = call i32 (ptr, ptr, ...) @__isoc99_sscanf(ptr noundef %62, ptr noundef nonnull @.str.158, ptr noundef nonnull %5) #33
  %64 = icmp eq i32 %63, 1
  %65 = getelementptr inbounds nuw i8, ptr %2, i64 56
  br i1 %64, label %66, label %70

66:                                               ; preds = %61
  %67 = load i32, ptr %65, align 8, !tbaa !385
  %68 = add nsw i32 %67, 1
  store i32 %68, ptr %65, align 8, !tbaa !385
  %69 = getelementptr inbounds nuw i8, ptr %2, i64 68
  store i32 1, ptr %69, align 4, !tbaa !387
  br label %71

70:                                               ; preds = %61
  store i32 0, ptr %65, align 8, !tbaa !385
  br label %71

71:                                               ; preds = %70, %66
  %.sink52 = phi i32 [ 1, %66 ], [ 0, %70 ]
  %72 = getelementptr inbounds nuw i8, ptr %2, i64 64
  store i32 %.sink52, ptr %72, align 8, !tbaa !396
  call void @llvm.lifetime.end.p0(i64 8, ptr nonnull %5) #33
  br label %.loopexit

73:                                               ; preds = %3
  %74 = getelementptr inbounds nuw i8, ptr %2, i64 56
  %75 = load i32, ptr %74, align 8, !tbaa !385
  %76 = add nsw i32 %75, 1
  store i32 %76, ptr %74, align 8, !tbaa !385
  %77 = getelementptr inbounds nuw i8, ptr %2, i64 64
  store i32 1, ptr %77, align 8, !tbaa !396
  %78 = getelementptr inbounds nuw i8, ptr %2, i64 68
  store i32 1, ptr %78, align 4, !tbaa !387
  br label %.loopexit

.loopexit:                                        ; preds = %31, %30, %.preheader, %12, %39, %73, %71, %59
  %79 = getelementptr inbounds nuw i8, ptr %2, i64 56
  %80 = load i32, ptr %79, align 8, !tbaa !385
  ret i32 %80
}